; Function Attrs: mustprogress nofree norecurse nosync nounwind willreturn memory(readwrite, inaccessiblemem: none) uwtable
define internal noundef range(i64 1, 0) i64 @_ZN2cv12_GLOBAL__N_117opjReadFromBufferEPvmPNS_6detail15OpjMemoryBufferE(ptr nocapture noundef writeonly %0, i64 noundef %1, ptr nocapture noundef %2) #10 {
  %4 = getelementptr inbounds i8, ptr %2, i64 8
  %5 = load ptr, ptr %4, align 8
  %6 = getelementptr inbounds i8, ptr %2, i64 16
  %7 = load i64, ptr %6, align 8
  %8 = getelementptr inbounds i8, ptr %5, i64 %7
  %9 = load ptr, ptr %2, align 8
  %10 = ptrtoint ptr %8 to i64
  %11 = ptrtoint ptr %9 to i64
  %12 = sub i64 %10, %11
  %.sroa.speculated = tail call i64 @llvm.umin.i64(i64 %12, i64 %1)
  %.not = icmp eq i64 %.sroa.speculated, 0
  br i1 %.not, label %16, label %13

13:                                               ; preds = %3
  tail call void @llvm.memcpy.p0.p0.i64(ptr align 1 %0, ptr align 1 %9, i64 %.sroa.speculated, i1 false)
  %14 = load ptr, ptr %2, align 8
  %15 = getelementptr inbounds i8, ptr %14, i64 %.sroa.speculated
  store ptr %15, ptr %2, align 8
  br label %16

16:                                               ; preds = %3, %13
  %.0 = phi i64 [ %.sroa.speculated, %13 ], [ -1, %3 ]
  ret i64 %.0
}